; Function Attrs: nounwind uwtable
define internal void @tkgen_textspan(ptr noundef %0, double %1, double %2, ptr noundef readonly captures(none) %3) #0 {
  %5 = getelementptr inbounds nuw i8, ptr %0, i64 32
  %6 = load ptr, ptr %5, align 8, !tbaa !34
  %7 = getelementptr inbounds nuw i8, ptr %6, i64 168
  %8 = load i32, ptr %7, align 8, !tbaa !39
  %.not = icmp eq i32 %8, 0
  br i1 %.not, label %73, label %9

9:                                                ; preds = %4
  %10 = getelementptr inbounds nuw i8, ptr %3, i64 8
  %11 = load ptr, ptr %10, align 8, !tbaa !44
  %12 = getelementptr inbounds nuw i8, ptr %11, i64 24
  %13 = load double, ptr %12, align 8, !tbaa !46
  %14 = getelementptr inbounds nuw i8, ptr %0, i64 480
  %15 = load double, ptr %14, align 8, !tbaa !49
  %16 = fmul double %13, %15
  %17 = tail call double @llvm.trunc.f64(double %16)
  %18 = fcmp ogt double %17, 0.000000e+00
  br i1 %18, label %19, label %73

19:                                               ; preds = %9
  %20 = getelementptr inbounds nuw i8, ptr %0, i64 264
  %21 = load i8, ptr %20, align 8, !tbaa !50, !range !51, !noundef !52
  %22 = trunc nuw i8 %21 to i1
  br i1 %22, label %23, label %tkgen_canvas.exit

23:                                               ; preds = %19
  %24 = getelementptr inbounds nuw i8, ptr %0, i64 256
  %25 = load ptr, ptr %24, align 8, !tbaa !53
  %26 = load ptr, ptr %25, align 8, !tbaa !54
  br label %tkgen_canvas.exit

tkgen_canvas.exit:                                ; preds = %19, %23
  %.str.14.sink.i = phi ptr [ %26, %23 ], [ @.str.14, %19 ]
  %27 = tail call i32 @gvputs(ptr noundef nonnull %0, ptr noundef %.str.14.sink.i) #6
  %28 = tail call i32 @gvputs(ptr noundef nonnull %0, ptr noundef nonnull @.str.6) #6
  %29 = fneg double %17
  %30 = tail call double @llvm.fmuladd.f64(double %29, double 5.500000e-01, double %2)
  tail call void @gvprintpointf(ptr noundef nonnull %0, double %1, double %30) #6
  %31 = load ptr, ptr %3, align 8, !tbaa !57
  tail call void (ptr, ptr, ...) @gvprintf(ptr noundef nonnull %0, ptr noundef nonnull @.str.7, ptr noundef %31) #6
  %32 = getelementptr inbounds nuw i8, ptr %6, i64 32
  %.sroa.0.0.copyload = load ptr, ptr %32, align 1
  %.sroa.834.0..sroa_idx = getelementptr inbounds nuw i8, ptr %6, i64 64
  %.sroa.834.0.copyload = load i32, ptr %.sroa.834.0..sroa_idx, align 1
  switch i32 %.sroa.834.0.copyload, label %47 [
    i32 4, label %33
    i32 1, label %35
  ]

33:                                               ; preds = %tkgen_canvas.exit
  %34 = tail call i32 @gvputs(ptr noundef nonnull %0, ptr noundef %.sroa.0.0.copyload) #6
  br label %tkgen_print_color.exit

35:                                               ; preds = %tkgen_canvas.exit
  %36 = ptrtoint ptr %.sroa.0.0.copyload to i64
  %37 = and i64 %36, 4278190080
  %38 = icmp eq i64 %37, 0
  br i1 %38, label %39, label %41

39:                                               ; preds = %35
  %40 = tail call i32 @gvputs(ptr noundef nonnull %0, ptr noundef nonnull @.str.15) #6
  br label %tkgen_print_color.exit

41:                                               ; preds = %35
  %.sroa.0.0.extract.trunc = trunc i64 %36 to i32
  %42 = and i32 %.sroa.0.0.extract.trunc, 255
  %43 = lshr i32 %.sroa.0.0.extract.trunc, 8
  %44 = and i32 %43, 255
  %45 = lshr i32 %.sroa.0.0.extract.trunc, 16
  %46 = and i32 %45, 255
  tail call void (ptr, ptr, ...) @gvprintf(ptr noundef nonnull %0, ptr noundef nonnull @.str.16, i32 noundef %42, i32 noundef %44, i32 noundef %46) #6
  br label %tkgen_print_color.exit

47:                                               ; preds = %tkgen_canvas.exit
  %48 = load ptr, ptr @stderr, align 8, !tbaa !58
  %49 = tail call i32 (ptr, ptr, ...) @fprintf(ptr noundef %48, ptr noundef nonnull @.str.17, ptr noundef nonnull @.str.18, i32 noundef 43) #7
  tail call void @abort() #8
  unreachable

tkgen_print_color.exit:                           ; preds = %33, %39, %41
  %50 = tail call i32 @gvputs(ptr noundef nonnull %0, ptr noundef nonnull @.str.8) #6
  %51 = load ptr, ptr %10, align 8, !tbaa !44
  %52 = getelementptr inbounds nuw i8, ptr %51, i64 16
  %53 = load ptr, ptr %52, align 8, !tbaa !59
  %.not32 = icmp eq ptr %53, null
  %54 = getelementptr inbounds nuw i8, ptr %53, i64 8
  %.0.in = select i1 %.not32, ptr %51, ptr %54
  %.0 = load ptr, ptr %.0.in, align 8, !tbaa !33
  %55 = tail call i32 @gvputs(ptr noundef nonnull %0, ptr noundef nonnull @.str.9) #6
  %56 = tail call i32 @gvputs(ptr noundef nonnull %0, ptr noundef %.0) #6
  %57 = tail call i32 @gvputs(ptr noundef nonnull %0, ptr noundef nonnull @.str.9) #6
  tail call void (ptr, ptr, ...) @gvprintf(ptr noundef nonnull %0, ptr noundef nonnull @.str.10, double noundef %17) #6
  %58 = getelementptr inbounds nuw i8, ptr %3, i64 64
  %59 = load i8, ptr %58, align 8, !tbaa !60
  switch i8 %59, label %62 [
    i8 108, label %.sink.split
    i8 114, label %60
  ]

60:                                               ; preds = %tkgen_print_color.exit
  br label %.sink.split

.sink.split:                                      ; preds = %tkgen_print_color.exit, %60
  %.str.12.sink = phi ptr [ @.str.12, %60 ], [ @.str.11, %tkgen_print_color.exit ]
  %61 = tail call i32 @gvputs(ptr noundef nonnull %0, ptr noundef nonnull %.str.12.sink) #6
  br label %62

62:                                               ; preds = %.sink.split, %tkgen_print_color.exit
  %63 = load ptr, ptr %5, align 8, !tbaa !34
  %64 = getelementptr inbounds nuw i8, ptr %63, i64 24
  %65 = load i32, ptr %64, align 8, !tbaa !61
  %66 = icmp ult i32 %65, 12
  br i1 %66, label %switch.lookup, label %67

67:                                               ; preds = %62
  %68 = load ptr, ptr @stderr, align 8, !tbaa !58
  %69 = tail call i32 (ptr, ptr, ...) @fprintf(ptr noundef %68, ptr noundef nonnull @.str.17, ptr noundef nonnull @.str.18, i32 noundef 100) #7
  tail call void @abort() #8
  unreachable

switch.lookup:                                    ; preds = %62
  %70 = zext nneg i32 %65 to i64
  %switch.gep = getelementptr inbounds nuw [12 x ptr], ptr @switch.table.tkgen_polyline, i64 0, i64 %70
  %switch.load = load ptr, ptr %switch.gep, align 8
  %71 = zext nneg i32 %65 to i64
  %switch.gep35 = getelementptr inbounds nuw [12 x i32], ptr @switch.table.tkgen_polyline.5, i64 0, i64 %71
  %switch.load36 = load i32, ptr %switch.gep35, align 4
  %.014.in.i = getelementptr inbounds nuw i8, ptr %63, i64 16
  %.014.i = load ptr, ptr %.014.in.i, align 8, !tbaa !35
  tail call void (ptr, ptr, ...) @gvprintf(ptr noundef nonnull %0, ptr noundef nonnull @.str.23, i32 noundef %switch.load36, ptr noundef nonnull %switch.load, ptr noundef %.014.i) #6
  %72 = tail call i32 @gvputs(ptr noundef nonnull %0, ptr noundef nonnull @.str.13) #6
  br label %73

73:                                               ; preds = %9, %switch.lookup, %4
  ret void
}